target datalayout = "e-m:e-p270:32:32-p271:32:32-p272:64:64-i64:64-i128:128-f80:128-n8:16:32:64-S128"
target triple = "x86_64-pc-linux-gnu"

; Function Attrs: mustprogress uwtable
define noundef ptr @_ZN7rocksdb18NewMergingIteratorEPKNS_21InternalKeyComparatorEPPNS_20InternalIteratorBaseINS_5SliceEEEiPNS_5ArenaEb(ptr noundef %0, ptr noundef %1, i32 noundef %2, ptr noundef %3, i1 noundef zeroext %4) #4 personality ptr @__gxx_personality_v0 {
  %6 = alloca ptr, align 8
  %7 = alloca ptr, align 8
  %8 = alloca ptr, align 8
  %9 = alloca i32, align 4
  %10 = alloca ptr, align 8
  %11 = alloca i8, align 1
  %12 = alloca ptr, align 8
  %13 = alloca i32, align 4
  %14 = alloca ptr, align 8
  store ptr %0, ptr %7, align 8, !tbaa !10
  store ptr %1, ptr %8, align 8, !tbaa !271
  store i32 %2, ptr %9, align 4, !tbaa !15
  store ptr %3, ptr %10, align 8, !tbaa !273
  %15 = zext i1 %4 to i8
  store i8 %15, ptr %11, align 1, !tbaa !68
  %16 = load i32, ptr %9, align 4, !tbaa !15
  %17 = icmp eq i32 %16, 0
  br i1 %17, label %18, label %21

18:                                               ; preds = %5
  %19 = load ptr, ptr %10, align 8, !tbaa !273
  %20 = call noundef ptr @_ZN7rocksdb24NewEmptyInternalIteratorINS_5SliceEEEPNS_20InternalIteratorBaseIT_EEPNS_5ArenaE(ptr noundef %19)
  store ptr %20, ptr %6, align 8
  br label %55

21:                                               ; preds = %5
  %22 = load i32, ptr %9, align 4, !tbaa !15
  %23 = icmp eq i32 %22, 1
  br i1 %23, label %24, label %28

24:                                               ; preds = %21
  %25 = load ptr, ptr %8, align 8, !tbaa !271
  %26 = getelementptr inbounds ptr, ptr %25, i64 0
  %27 = load ptr, ptr %26, align 8, !tbaa !275
  store ptr %27, ptr %6, align 8
  br label %55

28:                                               ; preds = %21
  %29 = load ptr, ptr %10, align 8, !tbaa !273
  %30 = icmp eq ptr %29, null
  br i1 %30, label %31, label %43

31:                                               ; preds = %28
  %32 = call noalias noundef nonnull ptr @_Znwm(i64 noundef 344) #23
  %33 = load ptr, ptr %7, align 8, !tbaa !10
  %34 = load ptr, ptr %8, align 8, !tbaa !271
  %35 = load i32, ptr %9, align 4, !tbaa !15
  %36 = load i8, ptr %11, align 1, !tbaa !68, !range !76, !noundef !77
  %37 = trunc i8 %36 to i1
  invoke void @_ZN7rocksdb15MergingIteratorC2EPKNS_21InternalKeyComparatorEPPNS_20InternalIteratorBaseINS_5SliceEEEibbPKS5_(ptr noundef nonnull align 8 dereferenceable(344) %32, ptr noundef %33, ptr noundef %34, i32 noundef %35, i1 noundef zeroext false, i1 noundef zeroext %37, ptr noundef null)
          to label %38 unwind label %39

38:                                               ; preds = %31
  store ptr %32, ptr %6, align 8
  br label %55

39:                                               ; preds = %31
  %40 = landingpad { ptr, i32 }
          cleanup
  %41 = extractvalue { ptr, i32 } %40, 0
  store ptr %41, ptr %12, align 8
  %42 = extractvalue { ptr, i32 } %40, 1
  store i32 %42, ptr %13, align 4
  call void @_ZdlPvm(ptr noundef %32, i64 noundef 344) #24
  br label %57

43:                                               ; preds = %28
  call void @llvm.lifetime.start.p0(i64 8, ptr %14) #6
  %44 = load ptr, ptr %10, align 8, !tbaa !273
  %45 = load ptr, ptr %44, align 16, !tbaa !26
  %46 = getelementptr inbounds ptr, ptr %45, i64 3
  %47 = load ptr, ptr %46, align 8
  %48 = call noundef ptr %47(ptr noundef nonnull align 16 dereferenceable(2288) %44, i64 noundef 344, i64 noundef 0, ptr noundef null)
  store ptr %48, ptr %14, align 8, !tbaa !28
  %49 = load ptr, ptr %14, align 8, !tbaa !28
  %50 = load ptr, ptr %7, align 8, !tbaa !10
  %51 = load ptr, ptr %8, align 8, !tbaa !271
  %52 = load i32, ptr %9, align 4, !tbaa !15
  %53 = load i8, ptr %11, align 1, !tbaa !68, !range !76, !noundef !77
  %54 = trunc i8 %53 to i1
  call void @_ZN7rocksdb15MergingIteratorC2EPKNS_21InternalKeyComparatorEPPNS_20InternalIteratorBaseINS_5SliceEEEibbPKS5_(ptr noundef nonnull align 8 dereferenceable(344) %49, ptr noundef %50, ptr noundef %51, i32 noundef %52, i1 noundef zeroext true, i1 noundef zeroext %54, ptr noundef null)
  store ptr %49, ptr %6, align 8
  call void @llvm.lifetime.end.p0(i64 8, ptr %14) #6
  br label %55

55:                                               ; preds = %43, %38, %24, %18
  %56 = load ptr, ptr %6, align 8
  ret ptr %56

57:                                               ; preds = %39
  %58 = load ptr, ptr %12, align 8
  %59 = load i32, ptr %13, align 4
  %60 = insertvalue { ptr, i32 } poison, ptr %58, 0
  %61 = insertvalue { ptr, i32 } %60, i32 %59, 1
  resume { ptr, i32 } %61
}