; Function Attrs: mustprogress uwtable
define noundef ptr @_ZN7rocksdb18NewMergingIteratorEPKNS_21InternalKeyComparatorEPPNS_20InternalIteratorBaseINS_5SliceEEEiPNS_5ArenaEb(ptr noundef %0, ptr noundef %1, i32 noundef %2, ptr noundef %3, i1 noundef zeroext %4) local_unnamed_addr #6 personality ptr @__gxx_personality_v0 {
  switch i32 %2, label %10 [
    i32 0, label %6
    i32 1, label %8
  ]

6:                                                ; preds = %5
  %7 = tail call noundef ptr @_ZN7rocksdb24NewEmptyInternalIteratorINS_5SliceEEEPNS_20InternalIteratorBaseIT_EEPNS_5ArenaE(ptr noundef %3)
  br label %21

8:                                                ; preds = %5
  %9 = load ptr, ptr %1, align 8, !tbaa !477
  br label %21

10:                                               ; preds = %5
  %11 = icmp eq ptr %3, null
  br i1 %11, label %12, label %16

12:                                               ; preds = %10
  %13 = tail call noalias noundef nonnull dereferenceable(344) ptr @_Znwm(i64 noundef 344) #29
  invoke void @_ZN7rocksdb15MergingIteratorC2EPKNS_21InternalKeyComparatorEPPNS_20InternalIteratorBaseINS_5SliceEEEibbPKS5_(ptr noundef nonnull align 8 dereferenceable(344) %13, ptr noundef %0, ptr noundef %1, i32 noundef %2, i1 noundef zeroext false, i1 noundef zeroext %4, ptr noundef null)
          to label %21 unwind label %14

14:                                               ; preds = %12
  %15 = landingpad { ptr, i32 }
          cleanup
  tail call void @_ZdlPvm(ptr noundef nonnull %13, i64 noundef 344) #24
  resume { ptr, i32 } %15

16:                                               ; preds = %10
  %17 = load ptr, ptr %3, align 16, !tbaa !66
  %18 = getelementptr inbounds nuw i8, ptr %17, i64 24
  %19 = load ptr, ptr %18, align 8
  %20 = tail call noundef ptr %19(ptr noundef nonnull align 16 dereferenceable(2288) %3, i64 noundef 344, i64 noundef 0, ptr noundef null)
  tail call void @_ZN7rocksdb15MergingIteratorC2EPKNS_21InternalKeyComparatorEPPNS_20InternalIteratorBaseINS_5SliceEEEibbPKS5_(ptr noundef nonnull align 8 dereferenceable(344) %20, ptr noundef %0, ptr noundef %1, i32 noundef %2, i1 noundef zeroext true, i1 noundef zeroext %4, ptr noundef null)
  br label %21

21:                                               ; preds = %12, %16, %8, %6
  %.0 = phi ptr [ %7, %6 ], [ %9, %8 ], [ %20, %16 ], [ %13, %12 ]
  ret ptr %.0
}